; Function Attrs: nounwind sspstrong uwtable
define internal noundef i64 @ossl_digest_update(i64 noundef returned %0, i64 noundef %1) #0 {
  %3 = alloca i64, align 8
  store i64 %1, ptr %3, align 8, !tbaa !6
  %4 = call i64 @rb_string_value(ptr noundef nonnull %3) #4
  %5 = call ptr @rb_check_typeddata(i64 noundef %0, ptr noundef nonnull @ossl_digest_type) #4
  %.not = icmp eq ptr %5, null
  br i1 %.not, label %6, label %8

6:                                                ; preds = %2
  %7 = load i64, ptr @rb_eRuntimeError, align 8, !tbaa !6
  call void (i64, ptr, ...) @ossl_raise(i64 noundef %7, ptr noundef nonnull @.str.1) #5
  unreachable

8:                                                ; preds = %2
  %9 = load i64, ptr %3, align 8, !tbaa !6
  %10 = inttoptr i64 %9 to ptr
  %11 = load i64, ptr %10, align 8, !tbaa !10, !noalias !24
  %12 = and i64 %11, 8192
  %.not.i.i = icmp eq i64 %12, 0
  %13 = getelementptr inbounds nuw i8, ptr %10, i64 24
  br i1 %.not.i.i, label %RSTRING_PTR.exit, label %14

14:                                               ; preds = %8
  %.sroa.2.0.copyload.i = load ptr, ptr %13, align 8
  br label %RSTRING_PTR.exit

RSTRING_PTR.exit:                                 ; preds = %8, %14
  %.sroa.2.0.i = phi ptr [ %.sroa.2.0.copyload.i, %14 ], [ %13, %8 ]
  %15 = getelementptr inbounds nuw i8, ptr %10, i64 16
  %16 = load i64, ptr %15, align 8, !tbaa !19
  %17 = call i32 @EVP_DigestUpdate(ptr noundef nonnull %5, ptr noundef %.sroa.2.0.i, i64 noundef %16) #4
  %.not3 = icmp eq i32 %17, 0
  br i1 %.not3, label %18, label %20

18:                                               ; preds = %RSTRING_PTR.exit
  %19 = load i64, ptr @eDigestError, align 8, !tbaa !6
  call void (i64, ptr, ...) @ossl_raise(i64 noundef %19, ptr noundef nonnull @.str.22) #5
  unreachable

20:                                               ; preds = %RSTRING_PTR.exit
  ret i64 %0
}